target datalayout = "e-m:e-p270:32:32-p271:32:32-p272:64:64-i64:64-i128:128-f80:128-n8:16:32:64-S128"
target triple = "x86_64-pc-linux-gnu"

%struct.bio_st = type { ptr, ptr, ptr, i32, i32, i32, i32, i32, i32, ptr, ptr, i64, i64 }
%struct.bio_f_buffer_ctx_struct = type { i32, i32, ptr, i32, i32, ptr, i32, i32 }

; Function Attrs: nounwind uwtable
define internal i32 @buffer_new(ptr noundef %0) #0 {
  %2 = alloca i32, align 4
  %3 = alloca ptr, align 8
  %4 = alloca ptr, align 8
  %5 = alloca i32, align 4
  store ptr %0, ptr %3, align 8, !tbaa !6
  call void @llvm.lifetime.start.p0(i64 8, ptr %4) #8
  %6 = call noalias ptr @malloc(i64 noundef 40) #10
  store ptr %6, ptr %4, align 8, !tbaa !19
  %7 = load ptr, ptr %4, align 8, !tbaa !19
  %8 = icmp eq ptr %7, null
  br i1 %8, label %9, label %10

9:                                                ; preds = %1
  store i32 0, ptr %2, align 4
  store i32 1, ptr %5, align 4
  br label %45

10:                                               ; preds = %1
  %11 = load ptr, ptr %4, align 8, !tbaa !19
  call void @llvm.memset.p0.i64(ptr align 8 %11, i8 0, i64 40, i1 false)
  %12 = call noalias ptr @malloc(i64 noundef 4096) #10
  %13 = load ptr, ptr %4, align 8, !tbaa !19
  %14 = getelementptr inbounds nuw %struct.bio_f_buffer_ctx_struct, ptr %13, i32 0, i32 2
  store ptr %12, ptr %14, align 8, !tbaa !30
  %15 = load ptr, ptr %4, align 8, !tbaa !19
  %16 = getelementptr inbounds nuw %struct.bio_f_buffer_ctx_struct, ptr %15, i32 0, i32 2
  %17 = load ptr, ptr %16, align 8, !tbaa !30
  %18 = icmp eq ptr %17, null
  br i1 %18, label %19, label %20

19:                                               ; preds = %10
  br label %43

20:                                               ; preds = %10
  %21 = call noalias ptr @malloc(i64 noundef 4096) #10
  %22 = load ptr, ptr %4, align 8, !tbaa !19
  %23 = getelementptr inbounds nuw %struct.bio_f_buffer_ctx_struct, ptr %22, i32 0, i32 5
  store ptr %21, ptr %23, align 8, !tbaa !26
  %24 = load ptr, ptr %4, align 8, !tbaa !19
  %25 = getelementptr inbounds nuw %struct.bio_f_buffer_ctx_struct, ptr %24, i32 0, i32 5
  %26 = load ptr, ptr %25, align 8, !tbaa !26
  %27 = icmp eq ptr %26, null
  br i1 %27, label %28, label %29

28:                                               ; preds = %20
  br label %39

29:                                               ; preds = %20
  %30 = load ptr, ptr %4, align 8, !tbaa !19
  %31 = getelementptr inbounds nuw %struct.bio_f_buffer_ctx_struct, ptr %30, i32 0, i32 0
  store i32 4096, ptr %31, align 8, !tbaa !32
  %32 = load ptr, ptr %4, align 8, !tbaa !19
  %33 = getelementptr inbounds nuw %struct.bio_f_buffer_ctx_struct, ptr %32, i32 0, i32 1
  store i32 4096, ptr %33, align 4, !tbaa !22
  %34 = load ptr, ptr %3, align 8, !tbaa !6
  %35 = getelementptr inbounds nuw %struct.bio_st, ptr %34, i32 0, i32 3
  store i32 1, ptr %35, align 8, !tbaa !40
  %36 = load ptr, ptr %4, align 8, !tbaa !19
  %37 = load ptr, ptr %3, align 8, !tbaa !6
  %38 = getelementptr inbounds nuw %struct.bio_st, ptr %37, i32 0, i32 9
  store ptr %36, ptr %38, align 8, !tbaa !15
  store i32 1, ptr %2, align 4
  store i32 1, ptr %5, align 4
  br label %45

39:                                               ; preds = %28
  %40 = load ptr, ptr %4, align 8, !tbaa !19
  %41 = getelementptr inbounds nuw %struct.bio_f_buffer_ctx_struct, ptr %40, i32 0, i32 2
  %42 = load ptr, ptr %41, align 8, !tbaa !30
  call void @free(ptr noundef %42) #8
  br label %43

43:                                               ; preds = %39, %19
  %44 = load ptr, ptr %4, align 8, !tbaa !19
  call void @free(ptr noundef %44) #8
  store i32 0, ptr %2, align 4
  store i32 1, ptr %5, align 4
  br label %45

45:                                               ; preds = %43, %29, %9
  call void @llvm.lifetime.end.p0(i64 8, ptr %4) #8
  %46 = load i32, ptr %2, align 4
  ret i32 %46
}