; Function Attrs: mustprogress nounwind willreturn memory(readwrite, argmem: write) uwtable
define internal range(i32 0, 2) i32 @buffer_new(ptr noundef writeonly captures(none) %0) #3 {
  %calloc = tail call dereferenceable_or_null(40) ptr @calloc(i64 1, i64 40)
  %2 = icmp eq ptr %calloc, null
  br i1 %2, label %17, label %3

3:                                                ; preds = %1
  %4 = tail call noalias dereferenceable_or_null(4096) ptr @malloc(i64 noundef 4096) #13
  %5 = getelementptr inbounds nuw i8, ptr %calloc, i64 8
  store ptr %4, ptr %5, align 8, !tbaa !25
  %6 = icmp eq ptr %4, null
  br i1 %6, label %16, label %7

7:                                                ; preds = %3
  %8 = tail call noalias dereferenceable_or_null(4096) ptr @malloc(i64 noundef 4096) #13
  %9 = getelementptr inbounds nuw i8, ptr %calloc, i64 24
  store ptr %8, ptr %9, align 8, !tbaa !21
  %10 = icmp eq ptr %8, null
  br i1 %10, label %15, label %11

11:                                               ; preds = %7
  store i32 4096, ptr %calloc, align 8, !tbaa !27
  %12 = getelementptr inbounds nuw i8, ptr %calloc, i64 4
  store i32 4096, ptr %12, align 4, !tbaa !17
  %13 = getelementptr inbounds nuw i8, ptr %0, i64 24
  store i32 1, ptr %13, align 8, !tbaa !32
  %14 = getelementptr inbounds nuw i8, ptr %0, i64 48
  store ptr %calloc, ptr %14, align 8, !tbaa !6
  br label %17

15:                                               ; preds = %7
  tail call void @free(ptr noundef nonnull %4) #11
  br label %16

16:                                               ; preds = %3, %15
  tail call void @free(ptr noundef nonnull %calloc) #11
  br label %17

17:                                               ; preds = %1, %16, %11
  %.0 = phi i32 [ 0, %16 ], [ 1, %11 ], [ 0, %1 ]
  ret i32 %.0
}